; Function Attrs: nounwind uwtable
define dso_local void @job_state_unset_flag(ptr noundef %0, i32 noundef %1) local_unnamed_addr #0 {
  %3 = getelementptr inbounds nuw i8, ptr %0, i64 448
  %4 = load i32, ptr %3, align 8
  %5 = xor i32 %1, -1
  %6 = and i32 %4, %5
  tail call void @on_job_state_change(ptr noundef %0, i32 noundef %6)
  store i32 %6, ptr %3, align 8
  ret void
}